target datalayout = "e-m:e-p270:32:32-p271:32:32-p272:64:64-i64:64-i128:128-f80:128-n8:16:32:64-S128"
target triple = "x86_64-pc-linux-gnu"

@hf_ccp_opt_oui = internal global i32 0, align 4
@hf_ccp_opt_subtype = internal global i32 0, align 4
@hf_ccp_opt_data = internal global i32 0, align 4
@ett_ccp_oui_opt = internal global i32 0, align 4
@proto_ccp_option_oui = internal global i32 0, align 4

; Function Attrs: null_pointer_is_valid sspstrong uwtable
define internal i32 @dissect_ccp_oui_opt(ptr noundef %0, ptr noundef %1, ptr noundef %2, ptr noundef %3) #1 {
  %5 = alloca i32, align 4
  %6 = alloca ptr, align 8
  %7 = alloca ptr, align 8
  %8 = alloca ptr, align 8
  %9 = alloca ptr, align 8
  %10 = alloca ptr, align 8
  %11 = alloca ptr, align 8
  %12 = alloca i32, align 4
  %13 = alloca i32, align 4
  %14 = alloca i32, align 4
  store ptr %0, ptr %6, align 8
  store ptr %1, ptr %7, align 8
  store ptr %2, ptr %8, align 8
  store ptr %3, ptr %9, align 8
  call void @llvm.lifetime.start.p0(i64 8, ptr %10) #6
  call void @llvm.lifetime.start.p0(i64 8, ptr %11) #6
  call void @llvm.lifetime.start.p0(i64 4, ptr %12) #6
  store i32 0, ptr %12, align 4
  call void @llvm.lifetime.start.p0(i64 4, ptr %13) #6
  %15 = load ptr, ptr %6, align 8
  %16 = call i32 @tvb_reported_length(ptr noundef %15)
  store i32 %16, ptr %13, align 4
  %17 = load ptr, ptr %6, align 8
  %18 = load ptr, ptr %7, align 8
  %19 = load ptr, ptr %8, align 8
  %20 = load i32, ptr @proto_ccp_option_oui, align 4
  %21 = load i32, ptr @ett_ccp_oui_opt, align 4
  %22 = call zeroext i1 @dissect_ccp_var_opt(ptr noundef %17, ptr noundef %18, ptr noundef %19, i32 noundef %20, i32 noundef %21, i32 noundef 6, ptr noundef %10, ptr noundef %11)
  br i1 %22, label %26, label %23

23:                                               ; preds = %4
  %24 = load ptr, ptr %6, align 8
  %25 = call i32 @tvb_captured_length(ptr noundef %24)
  store i32 %25, ptr %5, align 4
  store i32 1, ptr %14, align 4
  br label %53

26:                                               ; preds = %4
  %27 = load ptr, ptr %10, align 8
  %28 = load i32, ptr @hf_ccp_opt_oui, align 4
  %29 = load ptr, ptr %6, align 8
  %30 = load i32, ptr %12, align 4
  %31 = add i32 %30, 2
  %32 = call ptr @proto_tree_add_item(ptr noundef %27, i32 noundef %28, ptr noundef %29, i32 noundef %31, i32 noundef 3, i32 noundef 0)
  %33 = load ptr, ptr %10, align 8
  %34 = load i32, ptr @hf_ccp_opt_subtype, align 4
  %35 = load ptr, ptr %6, align 8
  %36 = load i32, ptr %12, align 4
  %37 = add i32 %36, 5
  %38 = call ptr @proto_tree_add_item(ptr noundef %33, i32 noundef %34, ptr noundef %35, i32 noundef %37, i32 noundef 1, i32 noundef 0)
  %39 = load i32, ptr %13, align 4
  %40 = icmp sgt i32 %39, 6
  br i1 %40, label %41, label %50

41:                                               ; preds = %26
  %42 = load ptr, ptr %10, align 8
  %43 = load i32, ptr @hf_ccp_opt_data, align 4
  %44 = load ptr, ptr %6, align 8
  %45 = load i32, ptr %12, align 4
  %46 = add i32 %45, 6
  %47 = load i32, ptr %13, align 4
  %48 = sub i32 %47, 6
  %49 = call ptr @proto_tree_add_item(ptr noundef %42, i32 noundef %43, ptr noundef %44, i32 noundef %46, i32 noundef %48, i32 noundef 0)
  br label %50

50:                                               ; preds = %41, %26
  %51 = load ptr, ptr %6, align 8
  %52 = call i32 @tvb_captured_length(ptr noundef %51)
  store i32 %52, ptr %5, align 4
  store i32 1, ptr %14, align 4
  br label %53

53:                                               ; preds = %50, %23
  call void @llvm.lifetime.end.p0(i64 4, ptr %13) #6
  call void @llvm.lifetime.end.p0(i64 4, ptr %12) #6
  call void @llvm.lifetime.end.p0(i64 8, ptr %11) #6
  call void @llvm.lifetime.end.p0(i64 8, ptr %10) #6
  %54 = load i32, ptr %5, align 4
  ret i32 %54
}